target datalayout = "e-m:e-p270:32:32-p271:32:32-p272:64:64-i64:64-i128:128-f80:128-n8:16:32:64-S128"
target triple = "x86_64-pc-linux-gnu"

%class.SCTPAssocAnalyseDialog = type { %class.QDialog, ptr, i16, ptr }
%class.QDialog = type { %class.QWidget }
%class.QWidget = type { %class.QObject, %class.QPaintDevice.base, ptr }
%class.QObject = type { ptr, %class.QScopedPointer }
%class.QScopedPointer = type { ptr }
%class.QPaintDevice.base = type <{ ptr, i16 }>

; Function Attrs: mustprogress null_pointer_is_valid sspstrong uwtable
define void @_ZN22SCTPAssocAnalyseDialog19openGraphByteDialogEi(ptr noundef align 8 dereferenceable_or_null(64) %0, i32 noundef %1) #0 align 2 personality ptr @__gxx_personality_v0 {
  %3 = alloca ptr, align 8
  %4 = alloca i32, align 4
  %5 = alloca ptr, align 8
  %6 = alloca i32, align 4
  %7 = alloca ptr, align 8
  %8 = alloca ptr, align 8
  %9 = alloca i32, align 4
  store ptr %0, ptr %3, align 8
  store i32 %1, ptr %4, align 4
  %10 = load ptr, ptr %3, align 8
  call void @llvm.lifetime.start.p0(i64 8, ptr %5) #16
  %11 = getelementptr inbounds nuw %class.SCTPAssocAnalyseDialog, ptr %10, i32 0, i32 2
  %12 = load i16, ptr %11, align 8
  %13 = call noundef ptr @_ZN22SCTPAssocAnalyseDialog9findAssocEP7QWidgett(ptr noundef %10, i16 noundef zeroext %12)
  store ptr %13, ptr %5, align 8
  %14 = load ptr, ptr %5, align 8
  %15 = icmp ne ptr %14, null
  br i1 %15, label %17, label %16

16:                                               ; preds = %2
  store i32 1, ptr %6, align 4
  br label %39

17:                                               ; preds = %2
  call void @llvm.lifetime.start.p0(i64 8, ptr %7) #16
  %18 = call noalias noundef ptr @_Znwm(i64 noundef 144) #20
  %19 = load ptr, ptr %5, align 8
  %20 = getelementptr inbounds nuw %class.SCTPAssocAnalyseDialog, ptr %10, i32 0, i32 3
  %21 = load ptr, ptr %20, align 8
  %22 = load i32, ptr %4, align 4
  invoke void @_ZN19SCTPGraphByteDialogC1EP7QWidgetPK16_sctp_assoc_infoP13_capture_filei(ptr noundef align 8 dereferenceable_or_null(144) %18, ptr noundef %10, ptr noundef %19, ptr noundef %21, i32 noundef %22)
          to label %23 unwind label %30

23:                                               ; preds = %17
  store ptr %18, ptr %7, align 8
  %24 = load ptr, ptr %7, align 8
  %25 = call noundef zeroext i1 @_ZNK7QWidget11isMinimizedEv(ptr noundef align 8 dereferenceable_or_null(40) %24)
  %26 = zext i1 %25 to i32
  %27 = icmp eq i32 %26, 1
  br i1 %27, label %28, label %34

28:                                               ; preds = %23
  %29 = load ptr, ptr %7, align 8
  call void @_ZN7QWidget10showNormalEv(ptr noundef align 8 dereferenceable_or_null(40) %29)
  br label %36

30:                                               ; preds = %17
  %31 = landingpad { ptr, i32 }
          cleanup
  %32 = extractvalue { ptr, i32 } %31, 0
  store ptr %32, ptr %8, align 8
  %33 = extractvalue { ptr, i32 } %31, 1
  store i32 %33, ptr %9, align 4
  call void @_ZdlPvm(ptr noundef %18, i64 noundef 144) #21
  call void @llvm.lifetime.end.p0(i64 8, ptr %7) #16
  call void @llvm.lifetime.end.p0(i64 8, ptr %5) #16
  br label %42

34:                                               ; preds = %23
  %35 = load ptr, ptr %7, align 8
  call void @_ZN7QWidget4showEv(ptr noundef align 8 dereferenceable_or_null(40) %35)
  br label %36

36:                                               ; preds = %34, %28
  %37 = load ptr, ptr %7, align 8
  call void @_ZN7QWidget5raiseEv(ptr noundef align 8 dereferenceable_or_null(40) %37)
  %38 = load ptr, ptr %7, align 8
  call void @_ZN7QWidget14activateWindowEv(ptr noundef align 8 dereferenceable_or_null(40) %38)
  call void @llvm.lifetime.end.p0(i64 8, ptr %7) #16
  store i32 0, ptr %6, align 4
  br label %39

39:                                               ; preds = %36, %16
  call void @llvm.lifetime.end.p0(i64 8, ptr %5) #16
  %40 = load i32, ptr %6, align 4
  switch i32 %40, label %47 [
    i32 0, label %41
    i32 1, label %41
  ]

41:                                               ; preds = %39, %39
  ret void

42:                                               ; preds = %30
  %43 = load ptr, ptr %8, align 8
  %44 = load i32, ptr %9, align 4
  %45 = insertvalue { ptr, i32 } poison, ptr %43, 0
  %46 = insertvalue { ptr, i32 } %45, i32 %44, 1
  resume { ptr, i32 } %46

47:                                               ; preds = %39
  unreachable
}